; Function Attrs: inlinehint mustprogress nofree norecurse nosync nounwind willreturn memory(none) uwtable
define internal fastcc i32 @av_cmp_q(i64 %0, i64 %1) unnamed_addr #10 {
  %.sroa.011.0.extract.trunc = trunc i64 %0 to i32
  %.sroa.0.0.extract.trunc = trunc i64 %1 to i32
  %sext = shl i64 %0, 32
  %3 = ashr exact i64 %sext, 32
  %4 = ashr i64 %1, 32
  %5 = mul nsw i64 %3, %4
  %sext20 = shl i64 %1, 32
  %6 = ashr exact i64 %sext20, 32
  %7 = ashr i64 %0, 32
  %8 = mul nsw i64 %6, %7
  %.not = icmp eq i64 %5, %8
  br i1 %.not, label %16, label %9

9:                                                ; preds = %2
  %10 = sub nsw i64 %5, %8
  %11 = xor i64 %7, %10
  %12 = xor i64 %11, %4
  %13 = ashr i64 %12, 63
  %14 = trunc nsw i64 %13 to i32
  %15 = or i32 %14, 1
  br label %25

16:                                               ; preds = %2
  %17 = icmp ugt i64 %1, 4294967295
  %18 = icmp ugt i64 %0, 4294967295
  %or.cond = and i1 %18, %17
  br i1 %or.cond, label %25, label %19

19:                                               ; preds = %16
  %20 = icmp ne i32 %.sroa.011.0.extract.trunc, 0
  %21 = icmp ne i32 %.sroa.0.0.extract.trunc, 0
  %or.cond5 = and i1 %20, %21
  br i1 %or.cond5, label %22, label %25

22:                                               ; preds = %19
  %23 = ashr i32 %.sroa.011.0.extract.trunc, 31
  %.neg = lshr i32 %.sroa.0.0.extract.trunc, 31
  %24 = add nsw i32 %.neg, %23
  br label %25

25:                                               ; preds = %19, %16, %22, %9
  %.0 = phi i32 [ %15, %9 ], [ %24, %22 ], [ 0, %16 ], [ -2147483648, %19 ]
  ret i32 %.0
}